; ModuleID = '49/341.cpp'
source_filename = "49/341.cpp"
target datalayout = "e-m:e-p270:32:32-p271:32:32-p272:64:64-i64:64-f80:128-n8:16:32:64-S128"
target triple = "x86_64-pc-linux-gnu"

%"class.std::ios_base::Init" = type { i8 }
%"class.std::basic_istream" = type { i32 (...)**, i64, %"class.std::basic_ios" }
%"class.std::basic_ios" = type { %"class.std::ios_base", %"class.std::basic_ostream"*, i8, i8, %"class.std::basic_streambuf"*, %"class.std::ctype"*, %"class.std::num_put"*, %"class.std::num_get"* }
%"class.std::ios_base" = type { i32 (...)**, i64, i64, i32, i32, i32, %"struct.std::ios_base::_Callback_list"*, %"struct.std::ios_base::_Words", [8 x %"struct.std::ios_base::_Words"], i32, %"struct.std::ios_base::_Words"*, %"class.std::locale" }
%"struct.std::ios_base::_Callback_list" = type { %"struct.std::ios_base::_Callback_list"*, void (i32, %"class.std::ios_base"*, i32)*, i32, i32 }
%"struct.std::ios_base::_Words" = type { i8*, i64 }
%"class.std::locale" = type { %"class.std::locale::_Impl"* }
%"class.std::locale::_Impl" = type { i32, %"class.std::locale::facet"**, i64, %"class.std::locale::facet"**, i8** }
%"class.std::locale::facet" = type <{ i32 (...)**, i32, [4 x i8] }>
%"class.std::basic_ostream" = type { i32 (...)**, %"class.std::basic_ios" }
%"class.std::basic_streambuf" = type { i32 (...)**, i8*, i8*, i8*, i8*, i8*, i8*, %"class.std::locale" }
%"class.std::ctype" = type <{ %"class.std::locale::facet.base", [4 x i8], %struct.__locale_struct*, i8, [7 x i8], i32*, i32*, i16*, i8, [256 x i8], [256 x i8], i8, [6 x i8] }>
%"class.std::locale::facet.base" = type <{ i32 (...)**, i32 }>
%struct.__locale_struct = type { [13 x %struct.__locale_data*], i16*, i32*, i32*, [13 x i8*] }
%struct.__locale_data = type opaque
%"class.std::num_put" = type { %"class.std::locale::facet.base", [4 x i8] }
%"class.std::num_get" = type { %"class.std::locale::facet.base", [4 x i8] }

@_ZStL8__ioinit = internal global %"class.std::ios_base::Init" zeroinitializer, align 1
@__dso_handle = external hidden global i8
@_ZSt3cin = external dso_local global %"class.std::basic_istream", align 8
@_ZSt4cout = external dso_local global %"class.std::basic_ostream", align 8
@llvm.global_ctors = appending global [1 x { i32, void ()*, i8* }] [{ i32, void ()*, i8* } { i32 65535, void ()* @_GLOBAL__sub_I_341.cpp, i8* null }]

; Function Attrs: noinline uwtable
define internal void @__cxx_global_var_init() #0 section ".text.startup" {
  call void @_ZNSt8ios_base4InitC1Ev(%"class.std::ios_base::Init"* @_ZStL8__ioinit)
  %1 = call i32 @__cxa_atexit(void (i8*)* bitcast (void (%"class.std::ios_base::Init"*)* @_ZNSt8ios_base4InitD1Ev to void (i8*)*), i8* getelementptr inbounds (%"class.std::ios_base::Init", %"class.std::ios_base::Init"* @_ZStL8__ioinit, i32 0, i32 0), i8* @__dso_handle) #3
  ret void
}

declare dso_local void @_ZNSt8ios_base4InitC1Ev(%"class.std::ios_base::Init"*) unnamed_addr #1

; Function Attrs: nounwind
declare dso_local void @_ZNSt8ios_base4InitD1Ev(%"class.std::ios_base::Init"*) unnamed_addr #2

; Function Attrs: nounwind
declare dso_local i32 @__cxa_atexit(void (i8*)*, i8*, i8*) #3

; Function Attrs: noinline norecurse uwtable
define dso_local i32 @main() #4 {
  %1 = alloca i32, align 4
  %2 = alloca [501 x i8], align 16
  %3 = alloca i8, align 1
  %4 = alloca i32, align 4
  %5 = alloca i32, align 4
  %6 = alloca i32, align 4
  %7 = alloca i32, align 4
  %8 = alloca i32, align 4
  %9 = alloca i32, align 4
  store i32 0, i32* %1, align 4
  store i8 97, i8* %3, align 1
  store i32 0, i32* %4, align 4
  store i32 0, i32* %8, align 4
  br label %10

10:                                               ; preds = %14, %0
  %11 = load i8, i8* %3, align 1
  %12 = sext i8 %11 to i32
  %13 = icmp ne i32 %12, 10
  br i1 %13, label %14, label %23

14:                                               ; preds = %10
  %15 = load i32, i32* %4, align 4
  %16 = add nsw i32 %15, 1
  store i32 %16, i32* %4, align 4
  %17 = call i32 @_ZNSi3getEv(%"class.std::basic_istream"* @_ZSt3cin)
  %18 = trunc i32 %17 to i8
  store i8 %18, i8* %3, align 1
  %19 = load i8, i8* %3, align 1
  %20 = load i32, i32* %4, align 4
  %21 = sext i32 %20 to i64
  %22 = getelementptr inbounds [501 x i8], [501 x i8]* %2, i64 0, i64 %21
  store i8 %19, i8* %22, align 1
  br label %10

23:                                               ; preds = %10
  %24 = load i32, i32* %4, align 4
  %25 = add nsw i32 %24, -1
  store i32 %25, i32* %4, align 4
  store i32 2, i32* %5, align 4
  br label %26

26:                                               ; preds = %95, %23
  %27 = load i32, i32* %5, align 4
  %28 = load i32, i32* %4, align 4
  %29 = icmp sle i32 %27, %28
  br i1 %29, label %30, label %98

30:                                               ; preds = %26
  store i32 1, i32* %6, align 4
  br label %31

31:                                               ; preds = %91, %30
  %32 = load i32, i32* %6, align 4
  %33 = load i32, i32* %4, align 4
  %34 = load i32, i32* %5, align 4
  %35 = sub nsw i32 %33, %34
  %36 = add nsw i32 %35, 1
  %37 = icmp sle i32 %32, %36
  br i1 %37, label %38, label %94

38:                                               ; preds = %31
  store i32 0, i32* %8, align 4
  store i32 0, i32* %7, align 4
  br label %39

39:                                               ; preds = %65, %38
  %40 = load i32, i32* %7, align 4
  %41 = load i32, i32* %5, align 4
  %42 = sub nsw i32 %41, 1
  %43 = icmp sle i32 %40, %42
  br i1 %43, label %44, label %68

44:                                               ; preds = %39
  %45 = load i32, i32* %6, align 4
  %46 = load i32, i32* %7, align 4
  %47 = add nsw i32 %45, %46
  %48 = sext i32 %47 to i64
  %49 = getelementptr inbounds [501 x i8], [501 x i8]* %2, i64 0, i64 %48
  %50 = load i8, i8* %49, align 1
  %51 = sext i8 %50 to i32
  %52 = load i32, i32* %6, align 4
  %53 = load i32, i32* %5, align 4
  %54 = add nsw i32 %52, %53
  %55 = load i32, i32* %7, align 4
  %56 = sub nsw i32 %54, %55
  %57 = sub nsw i32 %56, 1
  %58 = sext i32 %57 to i64
  %59 = getelementptr inbounds [501 x i8], [501 x i8]* %2, i64 0, i64 %58
  %60 = load i8, i8* %59, align 1
  %61 = sext i8 %60 to i32
  %62 = icmp ne i32 %51, %61
  br i1 %62, label %63, label %64

63:                                               ; preds = %44
  store i32 1, i32* %8, align 4
  br label %68

64:                                               ; preds = %44
  br label %65

65:                                               ; preds = %64
  %66 = load i32, i32* %7, align 4
  %67 = add nsw i32 %66, 1
  store i32 %67, i32* %7, align 4
  br label %39

68:                                               ; preds = %63, %39
  %69 = load i32, i32* %8, align 4
  %70 = icmp eq i32 %69, 0
  br i1 %70, label %71, label %90

71:                                               ; preds = %68
  store i32 1, i32* %9, align 4
  br label %72

72:                                               ; preds = %85, %71
  %73 = load i32, i32* %9, align 4
  %74 = load i32, i32* %5, align 4
  %75 = icmp sle i32 %73, %74
  br i1 %75, label %76, label %88

76:                                               ; preds = %72
  %77 = load i32, i32* %6, align 4
  %78 = load i32, i32* %9, align 4
  %79 = add nsw i32 %77, %78
  %80 = sub nsw i32 %79, 1
  %81 = sext i32 %80 to i64
  %82 = getelementptr inbounds [501 x i8], [501 x i8]* %2, i64 0, i64 %81
  %83 = load i8, i8* %82, align 1
  %84 = call dereferenceable(272) %"class.std::basic_ostream"* @_ZStlsISt11char_traitsIcEERSt13basic_ostreamIcT_ES5_c(%"class.std::basic_ostream"* dereferenceable(272) @_ZSt4cout, i8 signext %83)
  br label %85

85:                                               ; preds = %76
  %86 = load i32, i32* %9, align 4
  %87 = add nsw i32 %86, 1
  store i32 %87, i32* %9, align 4
  br label %72

88:                                               ; preds = %72
  %89 = call dereferenceable(272) %"class.std::basic_ostream"* @_ZNSolsEPFRSoS_E(%"class.std::basic_ostream"* @_ZSt4cout, %"class.std::basic_ostream"* (%"class.std::basic_ostream"*)* @_ZSt4endlIcSt11char_traitsIcEERSt13basic_ostreamIT_T0_ES6_)
  br label %90

90:                                               ; preds = %88, %68
  br label %91

91:                                               ; preds = %90
  %92 = load i32, i32* %6, align 4
  %93 = add nsw i32 %92, 1
  store i32 %93, i32* %6, align 4
  br label %31

94:                                               ; preds = %31
  br label %95

95:                                               ; preds = %94
  %96 = load i32, i32* %5, align 4
  %97 = add nsw i32 %96, 1
  store i32 %97, i32* %5, align 4
  br label %26

98:                                               ; preds = %26
  ret i32 0
}

declare dso_local i32 @_ZNSi3getEv(%"class.std::basic_istream"*) #1

declare dso_local dereferenceable(272) %"class.std::basic_ostream"* @_ZStlsISt11char_traitsIcEERSt13basic_ostreamIcT_ES5_c(%"class.std::basic_ostream"* dereferenceable(272), i8 signext) #1

declare dso_local dereferenceable(272) %"class.std::basic_ostream"* @_ZNSolsEPFRSoS_E(%"class.std::basic_ostream"*, %"class.std::basic_ostream"* (%"class.std::basic_ostream"*)*) #1

declare dso_local dereferenceable(272) %"class.std::basic_ostream"* @_ZSt4endlIcSt11char_traitsIcEERSt13basic_ostreamIT_T0_ES6_(%"class.std::basic_ostream"* dereferenceable(272)) #1

; Function Attrs: noinline uwtable
define internal void @_GLOBAL__sub_I_341.cpp() #0 section ".text.startup" {
  call void @__cxx_global_var_init()
  ret void
}


!llvm.module.flags = !{!0}
!llvm.ident = !{!1}

!0 = !{i32 1, !"wchar_size", i32 4}
!1 = !{!"clang version 10.0.0-4ubuntu1 "}
